; Function Attrs: nofree nosync nounwind memory(readwrite, inaccessiblemem: none) uwtable
define range(i32 0, 2) i32 @Aig_ManRetimeMark_rec(ptr noundef %0, ptr noundef captures(none) %1) local_unnamed_addr #0 {
  %3 = getelementptr inbounds nuw i8, ptr %1, i64 24
  %4 = load i64, ptr %3, align 8
  %5 = and i64 %4, 32
  %.not = icmp eq i64 %5, 0
  br i1 %.not, label %6, label %30

6:                                                ; preds = %2
  %7 = and i64 %4, 7
  %.off = add nsw i64 %7, -1
  %switch = icmp ult i64 %.off, 2
  br i1 %switch, label %30, label %8

8:                                                ; preds = %6
  %9 = getelementptr i8, ptr %0, i64 312
  %.val22 = load i32, ptr %9, align 8, !tbaa !3
  %10 = getelementptr i8, ptr %1, i64 32
  %.val23 = load i32, ptr %10, align 8, !tbaa !21
  %.not30 = icmp eq i32 %.val23, %.val22
  br i1 %.not30, label %30, label %11

11:                                               ; preds = %8
  store i32 %.val22, ptr %10, align 8, !tbaa !21
  %12 = getelementptr i8, ptr %1, i64 8
  %.val25 = load ptr, ptr %12, align 8, !tbaa !22
  %13 = ptrtoint ptr %.val25 to i64
  %14 = and i64 %13, -2
  %15 = inttoptr i64 %14 to ptr
  %16 = tail call i32 @Aig_ManRetimeMark_rec(ptr noundef nonnull %0, ptr noundef %15)
  %.not18 = icmp eq i32 %16, 0
  %.val26 = load i64, ptr %3, align 8
  br i1 %.not18, label %17, label %.sink.split

17:                                               ; preds = %11
  %18 = trunc i64 %.val26 to i32
  %19 = and i32 %18, 7
  %20 = add nsw i32 %19, -7
  %narrow.i = icmp ult i32 %20, -2
  br i1 %narrow.i, label %30, label %21

21:                                               ; preds = %17
  %22 = getelementptr i8, ptr %1, i64 16
  %.val27 = load ptr, ptr %22, align 8, !tbaa !23
  %23 = ptrtoint ptr %.val27 to i64
  %24 = and i64 %23, -2
  %25 = inttoptr i64 %24 to ptr
  %26 = tail call i32 @Aig_ManRetimeMark_rec(ptr noundef nonnull %0, ptr noundef %25)
  %.not20 = icmp eq i32 %26, 0
  br i1 %.not20, label %30, label %27

27:                                               ; preds = %21
  %28 = load i64, ptr %3, align 8
  br label %.sink.split

.sink.split:                                      ; preds = %11, %27
  %.sink31 = phi i64 [ %28, %27 ], [ %.val26, %11 ]
  %29 = or i64 %.sink31, 32
  store i64 %29, ptr %3, align 8
  br label %30

30:                                               ; preds = %.sink.split, %6, %8, %17, %21, %2
  %.0 = phi i32 [ 1, %2 ], [ 0, %21 ], [ 0, %17 ], [ 0, %6 ], [ 0, %8 ], [ 1, %.sink.split ]
  ret i32 %.0
}